target datalayout = "e-m:e-p270:32:32-p271:32:32-p272:64:64-i64:64-i128:128-f80:128-n8:16:32:64-S128"
target triple = "x86_64-pc-linux-gnu"

%struct.mi_heap_s = type { ptr, ptr, i64, i32, i64, [2 x i64], %struct.mi_random_cxt_s, i64, i64, i64, ptr, i8, i8, [129 x ptr], [75 x %struct.mi_page_queue_s] }
%struct.mi_random_cxt_s = type { [16 x i32], [16 x i32], i32, i8 }
%struct.mi_page_queue_s = type { ptr, ptr, i64 }
%struct.mi_tld_s = type { i64, i8, ptr, ptr, %struct.mi_segments_tld_s, %struct.mi_stats_s }
%struct.mi_segments_tld_s = type { [36 x %struct.mi_span_queue_s], i64, i64, i64, i64, i64, ptr, ptr }
%struct.mi_span_queue_s = type { ptr, ptr, i64 }
%struct.mi_stats_s = type { %struct.mi_stat_count_s, %struct.mi_stat_count_s, %struct.mi_stat_count_s, %struct.mi_stat_count_s, %struct.mi_stat_count_s, %struct.mi_stat_count_s, %struct.mi_stat_count_s, %struct.mi_stat_count_s, %struct.mi_stat_count_s, %struct.mi_stat_count_s, %struct.mi_stat_count_s, %struct.mi_stat_count_s, %struct.mi_stat_count_s, %struct.mi_stat_count_s, %struct.mi_stat_count_s, %struct.mi_stat_counter_s, %struct.mi_stat_counter_s, %struct.mi_stat_counter_s, %struct.mi_stat_counter_s, %struct.mi_stat_counter_s, %struct.mi_stat_counter_s, %struct.mi_stat_counter_s, %struct.mi_stat_counter_s, %struct.mi_stat_counter_s, %struct.mi_stat_counter_s, %struct.mi_stat_counter_s, %struct.mi_stat_counter_s, %struct.mi_stat_counter_s, %struct.mi_stat_counter_s }
%struct.mi_stat_count_s = type { i64, i64, i64, i64 }
%struct.mi_stat_counter_s = type { i64, i64 }
%struct.mi_page_s = type { i32, i32, i8, i16, i16, %union.mi_page_flags_s, i8, ptr, ptr, i16, i8, i8, i64, ptr, i64, i64, ptr, ptr, [1 x ptr] }
%union.mi_page_flags_s = type { i8 }

@_mi_heap_empty = external hidden constant %struct.mi_heap_s, align 8

; Function Attrs: nounwind uwtable
define internal zeroext i1 @mi_heap_visit_pages(ptr noundef %0, ptr noundef %1, ptr noundef %2, ptr noundef %3) #0 {
  %5 = alloca i1, align 1
  %6 = alloca ptr, align 8
  %7 = alloca ptr, align 8
  %8 = alloca ptr, align 8
  %9 = alloca ptr, align 8
  %10 = alloca i64, align 8
  %11 = alloca i32, align 4
  %12 = alloca ptr, align 8
  %13 = alloca ptr, align 8
  %14 = alloca ptr, align 8
  store ptr %0, ptr %6, align 8, !tbaa !3
  store ptr %1, ptr %7, align 8, !tbaa !38
  store ptr %2, ptr %8, align 8, !tbaa !38
  store ptr %3, ptr %9, align 8, !tbaa !38
  %15 = load ptr, ptr %6, align 8, !tbaa !3
  %16 = icmp eq ptr %15, null
  br i1 %16, label %22, label %17

17:                                               ; preds = %4
  %18 = load ptr, ptr %6, align 8, !tbaa !3
  %19 = getelementptr inbounds nuw %struct.mi_heap_s, ptr %18, i32 0, i32 7
  %20 = load i64, ptr %19, align 8, !tbaa !41
  %21 = icmp eq i64 %20, 0
  br i1 %21, label %22, label %23

22:                                               ; preds = %17, %4
  store i1 false, ptr %5, align 1
  br label %66

23:                                               ; preds = %17
  call void @llvm.lifetime.start.p0(i64 8, ptr %10) #10
  store i64 0, ptr %10, align 8, !tbaa !35
  br label %24

24:                                               ; preds = %60, %23
  %25 = load i64, ptr %10, align 8, !tbaa !35
  %26 = icmp ule i64 %25, 74
  br i1 %26, label %28, label %27

27:                                               ; preds = %24
  store i32 2, ptr %11, align 4
  br label %63

28:                                               ; preds = %24
  call void @llvm.lifetime.start.p0(i64 8, ptr %12) #10
  %29 = load ptr, ptr %6, align 8, !tbaa !3
  %30 = getelementptr inbounds nuw %struct.mi_heap_s, ptr %29, i32 0, i32 14
  %31 = load i64, ptr %10, align 8, !tbaa !35
  %32 = getelementptr inbounds nuw [75 x %struct.mi_page_queue_s], ptr %30, i64 0, i64 %31
  store ptr %32, ptr %12, align 8, !tbaa !42
  call void @llvm.lifetime.start.p0(i64 8, ptr %13) #10
  %33 = load ptr, ptr %12, align 8, !tbaa !42
  %34 = getelementptr inbounds nuw %struct.mi_page_queue_s, ptr %33, i32 0, i32 0
  %35 = load ptr, ptr %34, align 8, !tbaa !44
  store ptr %35, ptr %13, align 8, !tbaa !47
  br label %36

36:                                               ; preds = %55, %28
  %37 = load ptr, ptr %13, align 8, !tbaa !47
  %38 = icmp ne ptr %37, null
  br i1 %38, label %39, label %56

39:                                               ; preds = %36
  call void @llvm.lifetime.start.p0(i64 8, ptr %14) #10
  %40 = load ptr, ptr %13, align 8, !tbaa !47
  %41 = getelementptr inbounds nuw %struct.mi_page_s, ptr %40, i32 0, i32 16
  %42 = load ptr, ptr %41, align 8, !tbaa !48
  store ptr %42, ptr %14, align 8, !tbaa !47
  %43 = load ptr, ptr %7, align 8, !tbaa !38
  %44 = load ptr, ptr %6, align 8, !tbaa !3
  %45 = load ptr, ptr %12, align 8, !tbaa !42
  %46 = load ptr, ptr %13, align 8, !tbaa !47
  %47 = load ptr, ptr %8, align 8, !tbaa !38
  %48 = load ptr, ptr %9, align 8, !tbaa !38
  %49 = call zeroext i1 %43(ptr noundef %44, ptr noundef %45, ptr noundef %46, ptr noundef %47, ptr noundef %48) #9
  br i1 %49, label %51, label %50

50:                                               ; preds = %39
  store i1 false, ptr %5, align 1
  store i32 1, ptr %11, align 4
  br label %53

51:                                               ; preds = %39
  %52 = load ptr, ptr %14, align 8, !tbaa !47
  store ptr %52, ptr %13, align 8, !tbaa !47
  store i32 0, ptr %11, align 4
  br label %53

53:                                               ; preds = %51, %50
  call void @llvm.lifetime.end.p0(i64 8, ptr %14) #10
  %54 = load i32, ptr %11, align 4
  switch i32 %54, label %57 [
    i32 0, label %55
  ]

55:                                               ; preds = %53
  br label %36, !llvm.loop !53

56:                                               ; preds = %36
  store i32 0, ptr %11, align 4
  br label %57

57:                                               ; preds = %56, %53
  call void @llvm.lifetime.end.p0(i64 8, ptr %13) #10
  call void @llvm.lifetime.end.p0(i64 8, ptr %12) #10
  %58 = load i32, ptr %11, align 4
  switch i32 %58, label %63 [
    i32 0, label %59
  ]

59:                                               ; preds = %57
  br label %60

60:                                               ; preds = %59
  %61 = load i64, ptr %10, align 8, !tbaa !35
  %62 = add i64 %61, 1
  store i64 %62, ptr %10, align 8, !tbaa !35
  br label %24, !llvm.loop !54

63:                                               ; preds = %57, %27
  call void @llvm.lifetime.end.p0(i64 8, ptr %10) #10
  %64 = load i32, ptr %11, align 4
  switch i32 %64, label %68 [
    i32 2, label %65
    i32 1, label %66
  ]

65:                                               ; preds = %63
  store i1 true, ptr %5, align 1
  br label %66

66:                                               ; preds = %65, %63, %22
  %67 = load i1, ptr %5, align 1
  ret i1 %67

68:                                               ; preds = %63
  unreachable
}

; Function Attrs: inlinehint nounwind uwtable
define internal zeroext i1 @mi_heap_is_backing(ptr noundef %0) #1 {
  %2 = alloca ptr, align 8
  store ptr %0, ptr %2, align 8, !tbaa !3
  %3 = load ptr, ptr %2, align 8, !tbaa !3
  %4 = getelementptr inbounds nuw %struct.mi_heap_s, ptr %3, i32 0, i32 0
  %5 = load ptr, ptr %4, align 8, !tbaa !20
  %6 = getelementptr inbounds nuw %struct.mi_tld_s, ptr %5, i32 0, i32 2
  %7 = load ptr, ptr %6, align 8, !tbaa !21
  %8 = load ptr, ptr %2, align 8, !tbaa !3
  %9 = icmp eq ptr %7, %8
  ret i1 %9
}

; Function Attrs: inlinehint nounwind uwtable
define internal zeroext i1 @mi_heap_is_initialized(ptr noundef %0) #1 {
  %2 = alloca ptr, align 8
  store ptr %0, ptr %2, align 8, !tbaa !3
  %3 = load ptr, ptr %2, align 8, !tbaa !3
  %4 = icmp ne ptr %3, null
  br i1 %4, label %5, label %8

5:                                                ; preds = %1
  %6 = load ptr, ptr %2, align 8, !tbaa !3
  %7 = icmp ne ptr %6, @_mi_heap_empty
  br label %8

8:                                                ; preds = %5, %1
  %9 = phi i1 [ false, %1 ], [ %7, %5 ]
  ret i1 %9
}

; Function Attrs: nounwind uwtable
define internal void @mi_heap_collect_ex(ptr noundef %0, i32 noundef %1) #0 {
  %3 = alloca ptr, align 8
  %4 = alloca i32, align 4
  %5 = alloca i8, align 1
  %6 = alloca i8, align 1
  %7 = alloca i8, align 1
  store ptr %0, ptr %3, align 8, !tbaa !3
  store i32 %1, ptr %4, align 4, !tbaa !8
  %8 = load ptr, ptr %3, align 8, !tbaa !3
  %9 = icmp eq ptr %8, null
  br i1 %9, label %13, label %10

10:                                               ; preds = %2
  %11 = load ptr, ptr %3, align 8, !tbaa !3
  %12 = call zeroext i1 @mi_heap_is_initialized(ptr noundef %11) #9
  br i1 %12, label %14, label %13

13:                                               ; preds = %10, %2
  br label %88

14:                                               ; preds = %10
  call void @llvm.lifetime.start.p0(i64 1, ptr %5) #10
  %15 = load i32, ptr %4, align 4, !tbaa !8
  %16 = icmp uge i32 %15, 1
  %17 = zext i1 %16 to i8
  store i8 %17, ptr %5, align 1, !tbaa !10
  %18 = load ptr, ptr %3, align 8, !tbaa !3
  %19 = load i8, ptr %5, align 1, !tbaa !10, !range !12, !noundef !13
  %20 = trunc i8 %19 to i1
  call void @_mi_deferred_free(ptr noundef %18, i1 noundef zeroext %20) #9
  call void @llvm.lifetime.start.p0(i64 1, ptr %6) #10
  %21 = call zeroext i1 @_mi_is_main_thread() #9
  br i1 %21, label %22, label %28

22:                                               ; preds = %14
  %23 = load ptr, ptr %3, align 8, !tbaa !3
  %24 = getelementptr inbounds nuw %struct.mi_heap_s, ptr %23, i32 0, i32 2
  %25 = load i64, ptr %24, align 8, !tbaa !14
  %26 = call i64 @_mi_thread_id() #9
  %27 = icmp eq i64 %25, %26
  br label %28

28:                                               ; preds = %22, %14
  %29 = phi i1 [ false, %14 ], [ %27, %22 ]
  %30 = zext i1 %29 to i8
  store i8 %30, ptr %6, align 1, !tbaa !10
  call void @llvm.lifetime.start.p0(i64 1, ptr %7) #10
  %31 = load i32, ptr %4, align 4, !tbaa !8
  %32 = icmp eq i32 %31, 1
  br i1 %32, label %33, label %45

33:                                               ; preds = %28
  %34 = load i8, ptr %6, align 1, !tbaa !10, !range !12, !noundef !13
  %35 = trunc i8 %34 to i1
  br i1 %35, label %36, label %45

36:                                               ; preds = %33
  %37 = load ptr, ptr %3, align 8, !tbaa !3
  %38 = call zeroext i1 @mi_heap_is_backing(ptr noundef %37) #9
  br i1 %38, label %39, label %45

39:                                               ; preds = %36
  %40 = load ptr, ptr %3, align 8, !tbaa !3
  %41 = getelementptr inbounds nuw %struct.mi_heap_s, ptr %40, i32 0, i32 11
  %42 = load i8, ptr %41, align 8, !tbaa !19, !range !12, !noundef !13
  %43 = trunc i8 %42 to i1
  %44 = xor i1 %43, true
  br label %45

45:                                               ; preds = %39, %36, %33, %28
  %46 = phi i1 [ false, %36 ], [ false, %33 ], [ false, %28 ], [ %44, %39 ]
  %47 = zext i1 %46 to i8
  store i8 %47, ptr %7, align 1, !tbaa !10
  %48 = load i8, ptr %7, align 1, !tbaa !10, !range !12, !noundef !13
  %49 = trunc i8 %48 to i1
  br i1 %49, label %50, label %56

50:                                               ; preds = %45
  %51 = load ptr, ptr %3, align 8, !tbaa !3
  %52 = load ptr, ptr %3, align 8, !tbaa !3
  %53 = getelementptr inbounds nuw %struct.mi_heap_s, ptr %52, i32 0, i32 0
  %54 = load ptr, ptr %53, align 8, !tbaa !20
  %55 = getelementptr inbounds nuw %struct.mi_tld_s, ptr %54, i32 0, i32 4
  call void @_mi_abandoned_reclaim_all(ptr noundef %51, ptr noundef %55) #9
  br label %56

56:                                               ; preds = %50, %45
  %57 = load i32, ptr %4, align 4, !tbaa !8
  %58 = icmp eq i32 %57, 2
  br i1 %58, label %59, label %62

59:                                               ; preds = %56
  %60 = load ptr, ptr %3, align 8, !tbaa !3
  %61 = call zeroext i1 @mi_heap_visit_pages(ptr noundef %60, ptr noundef @mi_heap_page_never_delayed_free, ptr noundef null, ptr noundef null) #9
  br label %62

62:                                               ; preds = %59, %56
  %63 = load ptr, ptr %3, align 8, !tbaa !3
  call void @_mi_heap_delayed_free_all(ptr noundef %63) #9
  %64 = load ptr, ptr %3, align 8, !tbaa !3
  %65 = load i8, ptr %5, align 1, !tbaa !10, !range !12, !noundef !13
  %66 = trunc i8 %65 to i1
  call void @_mi_heap_collect_retired(ptr noundef %64, i1 noundef zeroext %66) #9
  %67 = load ptr, ptr %3, align 8, !tbaa !3
  %68 = call zeroext i1 @mi_heap_visit_pages(ptr noundef %67, ptr noundef @mi_heap_page_collect, ptr noundef %4, ptr noundef null) #9
  %69 = load ptr, ptr %3, align 8, !tbaa !3
  %70 = load i32, ptr %4, align 4, !tbaa !8
  %71 = icmp eq i32 %70, 1
  %72 = load ptr, ptr %3, align 8, !tbaa !3
  %73 = getelementptr inbounds nuw %struct.mi_heap_s, ptr %72, i32 0, i32 0
  %74 = load ptr, ptr %73, align 8, !tbaa !20
  %75 = getelementptr inbounds nuw %struct.mi_tld_s, ptr %74, i32 0, i32 4
  call void @_mi_abandoned_collect(ptr noundef %69, i1 noundef zeroext %71, ptr noundef %75) #9
  %76 = load i8, ptr %5, align 1, !tbaa !10, !range !12, !noundef !13
  %77 = trunc i8 %76 to i1
  br i1 %77, label %78, label %85

78:                                               ; preds = %62
  %79 = load i8, ptr %6, align 1, !tbaa !10, !range !12, !noundef !13
  %80 = trunc i8 %79 to i1
  br i1 %80, label %81, label %85

81:                                               ; preds = %78
  %82 = load ptr, ptr %3, align 8, !tbaa !3
  %83 = call zeroext i1 @mi_heap_is_backing(ptr noundef %82) #9
  br i1 %83, label %84, label %85

84:                                               ; preds = %81
  call void @_mi_thread_data_collect() #9
  br label %85

85:                                               ; preds = %84, %81, %78, %62
  %86 = load i32, ptr %4, align 4, !tbaa !8
  %87 = icmp eq i32 %86, 1
  call void @_mi_arenas_collect(i1 noundef zeroext %87) #9
  call void @llvm.lifetime.end.p0(i64 1, ptr %7) #10
  call void @llvm.lifetime.end.p0(i64 1, ptr %6) #10
  call void @llvm.lifetime.end.p0(i64 1, ptr %5) #10
  br label %88

88:                                               ; preds = %85, %13
  ret void
}